target datalayout = "e-m:e-p270:32:32-p271:32:32-p272:64:64-i64:64-i128:128-f80:128-n8:16:32:64-S128"
target triple = "x86_64-pc-linux-gnu"

%class.btVector3 = type { [4 x float] }
%class.btTransform = type { %class.btMatrix3x3, %class.btVector3 }
%class.btMatrix3x3 = type { [3 x %class.btVector3] }
%class.btAlignedObjectArray.4 = type <{ [4 x i8], i32, i32, [4 x i8], ptr, i8, [7 x i8] }>
%class.btAlignedObjectArray.52 = type <{ [4 x i8], i32, i32, [4 x i8], ptr, i8, [7 x i8] }>
%class.btSoftBody = type { %class.btCollisionObject.base, [4 x i8], %class.btAlignedObjectArray, ptr, %"struct.btSoftBody::Config", %"struct.btSoftBody::SolverState", [4 x i8], %"struct.btSoftBody::Pose", ptr, ptr, %class.btAlignedObjectArray.8, %class.btAlignedObjectArray.10, %class.btAlignedObjectArray.12, %class.btAlignedObjectArray.14, %class.btAlignedObjectArray.16, %class.btAlignedObjectArray.18, %class.btAlignedObjectArray.20, %class.btAlignedObjectArray.22, %class.btAlignedObjectArray.22, %class.btAlignedObjectArray.24, %class.btAlignedObjectArray.26, %class.btAlignedObjectArray.28, %class.btAlignedObjectArray.30, %class.btAlignedObjectArray.32, %class.btAlignedObjectArray.34, %class.btAlignedObjectArray.32, %class.btAlignedObjectArray.36, %class.btAlignedObjectArray.38, %class.btAlignedObjectArray.40, float, [2 x %class.btVector3], i8, %struct.btDbvt, %struct.btDbvt, ptr, %struct.btDbvt, %class.btAlignedObjectArray.44, float, float, float, [4 x i8], %class.btAlignedObjectArray.4, float, float, i8, [7 x i8], %class.btAlignedObjectArray.4, %class.btAlignedObjectArray.46, %class.btAlignedObjectArray.48, %class.btAlignedObjectArray.6, i8, i8, [6 x i8], %class.btAlignedObjectArray.50, %class.btVector3, float, i8, [3 x i8], %class.btAlignedObjectArray.52 }
%class.btCollisionObject.base = type <{ ptr, %class.btTransform, %class.btTransform, %class.btVector3, %class.btVector3, %class.btVector3, i32, float, ptr, ptr, ptr, ptr, i32, i32, i32, i32, i32, float, float, float, float, float, float, float, i32, [4 x i8], ptr, i32, i32, i32, float, float, float, i32, [4 x i8], %class.btAlignedObjectArray, i32, %class.btVector3 }>
%class.btAlignedObjectArray = type <{ [4 x i8], i32, i32, [4 x i8], ptr, i8, [7 x i8] }>
%"struct.btSoftBody::Config" = type { i32, float, float, float, float, float, float, float, float, float, float, float, float, float, float, float, float, float, float, float, float, i32, i32, i32, i32, i32, %class.btAlignedObjectArray.0, %class.btAlignedObjectArray.2, %class.btAlignedObjectArray.2, float, float }
%class.btAlignedObjectArray.0 = type <{ [4 x i8], i32, i32, [4 x i8], ptr, i8, [7 x i8] }>
%class.btAlignedObjectArray.2 = type <{ [4 x i8], i32, i32, [4 x i8], ptr, i8, [7 x i8] }>
%"struct.btSoftBody::SolverState" = type { float, float, float, float, float }
%"struct.btSoftBody::Pose" = type { i8, i8, float, %class.btAlignedObjectArray.4, %class.btAlignedObjectArray.6, %class.btVector3, %class.btMatrix3x3, %class.btMatrix3x3, %class.btMatrix3x3 }
%class.btAlignedObjectArray.8 = type <{ [4 x i8], i32, i32, [4 x i8], ptr, i8, [7 x i8] }>
%class.btAlignedObjectArray.10 = type <{ [4 x i8], i32, i32, [4 x i8], ptr, i8, [7 x i8] }>
%class.btAlignedObjectArray.12 = type <{ [4 x i8], i32, i32, [4 x i8], ptr, i8, [7 x i8] }>
%class.btAlignedObjectArray.14 = type <{ [4 x i8], i32, i32, [4 x i8], ptr, i8, [7 x i8] }>
%class.btAlignedObjectArray.16 = type <{ [4 x i8], i32, i32, [4 x i8], ptr, i8, [7 x i8] }>
%class.btAlignedObjectArray.18 = type <{ [4 x i8], i32, i32, [4 x i8], ptr, i8, [7 x i8] }>
%class.btAlignedObjectArray.20 = type <{ [4 x i8], i32, i32, [4 x i8], ptr, i8, [7 x i8] }>
%class.btAlignedObjectArray.22 = type <{ [4 x i8], i32, i32, [4 x i8], ptr, i8, [7 x i8] }>
%class.btAlignedObjectArray.24 = type <{ [4 x i8], i32, i32, [4 x i8], ptr, i8, [7 x i8] }>
%class.btAlignedObjectArray.26 = type <{ [4 x i8], i32, i32, [4 x i8], ptr, i8, [7 x i8] }>
%class.btAlignedObjectArray.28 = type <{ [4 x i8], i32, i32, [4 x i8], ptr, i8, [7 x i8] }>
%class.btAlignedObjectArray.30 = type <{ [4 x i8], i32, i32, [4 x i8], ptr, i8, [7 x i8] }>
%class.btAlignedObjectArray.34 = type <{ [4 x i8], i32, i32, [4 x i8], ptr, i8, [7 x i8] }>
%class.btAlignedObjectArray.32 = type <{ [4 x i8], i32, i32, [4 x i8], ptr, i8, [7 x i8] }>
%class.btAlignedObjectArray.36 = type <{ [4 x i8], i32, i32, [4 x i8], ptr, i8, [7 x i8] }>
%class.btAlignedObjectArray.38 = type <{ [4 x i8], i32, i32, [4 x i8], ptr, i8, [7 x i8] }>
%class.btAlignedObjectArray.40 = type <{ [4 x i8], i32, i32, [4 x i8], ptr, i8, [7 x i8] }>
%struct.btDbvt = type { ptr, ptr, i32, i32, i32, [4 x i8], %class.btAlignedObjectArray.42 }
%class.btAlignedObjectArray.42 = type <{ [4 x i8], i32, i32, [4 x i8], ptr, i8, [7 x i8] }>
%class.btAlignedObjectArray.44 = type <{ [4 x i8], i32, i32, [4 x i8], ptr, i8, [7 x i8] }>
%class.btAlignedObjectArray.46 = type <{ [4 x i8], i32, i32, [4 x i8], ptr, i8, [7 x i8] }>
%class.btAlignedObjectArray.48 = type <{ [4 x i8], i32, i32, [4 x i8], ptr, i8, [7 x i8] }>
%class.btAlignedObjectArray.6 = type <{ [4 x i8], i32, i32, [4 x i8], ptr, i8, [7 x i8] }>
%class.btAlignedObjectArray.50 = type <{ [4 x i8], i32, i32, [4 x i8], ptr, i8, [7 x i8] }>

; Function Attrs: inlinehint mustprogress nounwind uwtable
define linkonce_odr dso_local void @_ZN9btVector3C2ERKfS1_S1_(ptr noundef nonnull align 4 dereferenceable(16) %0, ptr noundef nonnull align 4 dereferenceable(4) %1, ptr noundef nonnull align 4 dereferenceable(4) %2, ptr noundef nonnull align 4 dereferenceable(4) %3) unnamed_addr #3 comdat align 2 {
  %5 = alloca ptr, align 8
  %6 = alloca ptr, align 8
  %7 = alloca ptr, align 8
  %8 = alloca ptr, align 8
  store ptr %0, ptr %5, align 8, !tbaa !14
  store ptr %1, ptr %6, align 8, !tbaa !16
  store ptr %2, ptr %7, align 8, !tbaa !16
  store ptr %3, ptr %8, align 8, !tbaa !16
  %9 = load ptr, ptr %5, align 8
  %10 = load ptr, ptr %6, align 8, !tbaa !16
  %11 = load float, ptr %10, align 4, !tbaa !12
  %12 = getelementptr inbounds nuw %class.btVector3, ptr %9, i32 0, i32 0
  %13 = getelementptr inbounds [4 x float], ptr %12, i64 0, i64 0
  store float %11, ptr %13, align 4, !tbaa !12
  %14 = load ptr, ptr %7, align 8, !tbaa !16
  %15 = load float, ptr %14, align 4, !tbaa !12
  %16 = getelementptr inbounds nuw %class.btVector3, ptr %9, i32 0, i32 0
  %17 = getelementptr inbounds [4 x float], ptr %16, i64 0, i64 1
  store float %15, ptr %17, align 4, !tbaa !12
  %18 = load ptr, ptr %8, align 8, !tbaa !16
  %19 = load float, ptr %18, align 4, !tbaa !12
  %20 = getelementptr inbounds nuw %class.btVector3, ptr %9, i32 0, i32 0
  %21 = getelementptr inbounds [4 x float], ptr %20, i64 0, i64 2
  store float %19, ptr %21, align 4, !tbaa !12
  %22 = getelementptr inbounds nuw %class.btVector3, ptr %9, i32 0, i32 0
  %23 = getelementptr inbounds [4 x float], ptr %22, i64 0, i64 3
  store float 0.000000e+00, ptr %23, align 4, !tbaa !12
  ret void
}

; Function Attrs: mustprogress uwtable
define dso_local void @_ZN17btSoftBodyHelpers15DrawClusterTreeEP10btSoftBodyP12btIDebugDrawii(ptr noundef %0, ptr noundef %1, i32 noundef %2, i32 noundef %3) #10 align 2 {
  %5 = alloca ptr, align 8
  %6 = alloca ptr, align 8
  %7 = alloca i32, align 4
  %8 = alloca i32, align 4
  %9 = alloca %class.btVector3, align 4
  %10 = alloca float, align 4
  %11 = alloca float, align 4
  %12 = alloca float, align 4
  %13 = alloca %class.btVector3, align 4
  %14 = alloca float, align 4
  %15 = alloca float, align 4
  %16 = alloca float, align 4
  store ptr %0, ptr %5, align 8, !tbaa !18
  store ptr %1, ptr %6, align 8, !tbaa !20
  store i32 %2, ptr %7, align 4, !tbaa !9
  store i32 %3, ptr %8, align 4, !tbaa !9
  %17 = load ptr, ptr %6, align 8, !tbaa !20
  %18 = load ptr, ptr %5, align 8, !tbaa !18
  %19 = getelementptr inbounds nuw %class.btSoftBody, ptr %18, i32 0, i32 35
  %20 = getelementptr inbounds nuw %struct.btDbvt, ptr %19, i32 0, i32 0
  %21 = load ptr, ptr %20, align 8, !tbaa !248
  call void @llvm.lifetime.start.p0(i64 16, ptr %9) #6
  call void @llvm.lifetime.start.p0(i64 4, ptr %10) #6
  store float 0.000000e+00, ptr %10, align 4, !tbaa !12
  call void @llvm.lifetime.start.p0(i64 4, ptr %11) #6
  store float 1.000000e+00, ptr %11, align 4, !tbaa !12
  call void @llvm.lifetime.start.p0(i64 4, ptr %12) #6
  store float 1.000000e+00, ptr %12, align 4, !tbaa !12
  call void @_ZN9btVector3C2ERKfS1_S1_(ptr noundef nonnull align 4 dereferenceable(16) %9, ptr noundef nonnull align 4 dereferenceable(4) %10, ptr noundef nonnull align 4 dereferenceable(4) %11, ptr noundef nonnull align 4 dereferenceable(4) %12)
  call void @llvm.lifetime.start.p0(i64 16, ptr %13) #6
  call void @llvm.lifetime.start.p0(i64 4, ptr %14) #6
  store float 1.000000e+00, ptr %14, align 4, !tbaa !12
  call void @llvm.lifetime.start.p0(i64 4, ptr %15) #6
  store float 0.000000e+00, ptr %15, align 4, !tbaa !12
  call void @llvm.lifetime.start.p0(i64 4, ptr %16) #6
  store float 0.000000e+00, ptr %16, align 4, !tbaa !12
  call void @_ZN9btVector3C2ERKfS1_S1_(ptr noundef nonnull align 4 dereferenceable(16) %13, ptr noundef nonnull align 4 dereferenceable(4) %14, ptr noundef nonnull align 4 dereferenceable(4) %15, ptr noundef nonnull align 4 dereferenceable(4) %16)
  %22 = load i32, ptr %7, align 4, !tbaa !9
  %23 = load i32, ptr %8, align 4, !tbaa !9
  call void @_ZL8drawTreeP12btIDebugDrawPK10btDbvtNodeiRK9btVector3S6_ii(ptr noundef %17, ptr noundef %21, i32 noundef 0, ptr noundef nonnull align 4 dereferenceable(16) %9, ptr noundef nonnull align 4 dereferenceable(16) %13, i32 noundef %22, i32 noundef %23)
  call void @llvm.lifetime.end.p0(i64 4, ptr %16) #6
  call void @llvm.lifetime.end.p0(i64 4, ptr %15) #6
  call void @llvm.lifetime.end.p0(i64 4, ptr %14) #6
  call void @llvm.lifetime.end.p0(i64 16, ptr %13) #6
  call void @llvm.lifetime.end.p0(i64 4, ptr %12) #6
  call void @llvm.lifetime.end.p0(i64 4, ptr %11) #6
  call void @llvm.lifetime.end.p0(i64 4, ptr %10) #6
  call void @llvm.lifetime.end.p0(i64 16, ptr %9) #6
  ret void
}