; Function Attrs: mustprogress uwtable
define dso_local void @_ZN17btSoftBodyHelpers15DrawClusterTreeEP10btSoftBodyP12btIDebugDrawii(ptr noundef readonly captures(none) %0, ptr noundef %1, i32 noundef %2, i32 noundef %3) local_unnamed_addr #8 align 2 {
  %5 = alloca %class.btVector3, align 4
  %6 = alloca %class.btVector3, align 4
  %7 = getelementptr inbounds nuw i8, ptr %0, i64 1680
  %8 = load ptr, ptr %7, align 8, !tbaa !204
  call void @llvm.lifetime.start.p0(i64 16, ptr nonnull %5) #27
  store float 0.000000e+00, ptr %5, align 4, !tbaa !4
  %9 = getelementptr inbounds nuw i8, ptr %5, i64 4
  store float 1.000000e+00, ptr %9, align 4, !tbaa !4
  %10 = getelementptr inbounds nuw i8, ptr %5, i64 8
  store float 1.000000e+00, ptr %10, align 4, !tbaa !4
  %11 = getelementptr inbounds nuw i8, ptr %5, i64 12
  store float 0.000000e+00, ptr %11, align 4, !tbaa !4
  call void @llvm.lifetime.start.p0(i64 16, ptr nonnull %6) #27
  store float 1.000000e+00, ptr %6, align 4, !tbaa !4
  %12 = getelementptr inbounds nuw i8, ptr %6, i64 4
  store float 0.000000e+00, ptr %12, align 4, !tbaa !4
  %13 = getelementptr inbounds nuw i8, ptr %6, i64 8
  store float 0.000000e+00, ptr %13, align 4, !tbaa !4
  %14 = getelementptr inbounds nuw i8, ptr %6, i64 12
  store float 0.000000e+00, ptr %14, align 4, !tbaa !4
  call fastcc void @_ZL8drawTreeP12btIDebugDrawPK10btDbvtNodeiRK9btVector3S6_ii(ptr noundef %1, ptr noundef %8, i32 noundef 0, ptr noundef nonnull align 4 dereferenceable(16) %5, ptr noundef nonnull align 4 dereferenceable(16) %6, i32 noundef %2, i32 noundef %3)
  call void @llvm.lifetime.end.p0(i64 16, ptr nonnull %6) #27
  call void @llvm.lifetime.end.p0(i64 16, ptr nonnull %5) #27
  ret void
}